; Function Attrs: nounwind uwtable
define internal range(i32 -20, 3) i32 @idaNlsLSetupSensStg(i32 %0, ptr noundef writeonly captures(none) %1, ptr noundef %2) #0 {
  %4 = icmp eq ptr %2, null
  br i1 %4, label %5, label %6

5:                                                ; preds = %3
  tail call void (ptr, i32, i32, ptr, ptr, ptr, ...) @IDAProcessError(ptr noundef null, i32 noundef -20, i32 noundef 243, ptr noundef nonnull @__func__.idaNlsLSetupSensStg, ptr noundef nonnull @.str, ptr noundef nonnull @.str.1) #3
  br label %33

6:                                                ; preds = %3
  %7 = getelementptr inbounds nuw i8, ptr %2, i64 1616
  %8 = load i64, ptr %7, align 8, !tbaa !63
  %9 = add nsw i64 %8, 1
  store i64 %9, ptr %7, align 8, !tbaa !63
  %10 = getelementptr inbounds nuw i8, ptr %2, i64 1856
  %11 = load ptr, ptr %10, align 8, !tbaa !61
  %12 = getelementptr inbounds nuw i8, ptr %2, i64 640
  %13 = load ptr, ptr %12, align 8, !tbaa !49
  %14 = getelementptr inbounds nuw i8, ptr %2, i64 648
  %15 = load ptr, ptr %14, align 8, !tbaa !50
  %16 = getelementptr inbounds nuw i8, ptr %2, i64 672
  %17 = load ptr, ptr %16, align 8, !tbaa !51
  %18 = getelementptr inbounds nuw i8, ptr %2, i64 952
  %19 = load ptr, ptr %18, align 8, !tbaa !53
  %20 = getelementptr inbounds nuw i8, ptr %2, i64 960
  %21 = load ptr, ptr %20, align 8, !tbaa !54
  %22 = getelementptr inbounds nuw i8, ptr %2, i64 968
  %23 = load ptr, ptr %22, align 8, !tbaa !55
  %24 = tail call i32 %11(ptr noundef nonnull %2, ptr noundef %13, ptr noundef %15, ptr noundef %17, ptr noundef %19, ptr noundef %21, ptr noundef %23) #3
  store i32 1, ptr %1, align 4, !tbaa !57
  %25 = getelementptr inbounds nuw i8, ptr %2, i64 1288
  %26 = load double, ptr %25, align 8, !tbaa !45
  %27 = getelementptr inbounds nuw i8, ptr %2, i64 1304
  store double %26, ptr %27, align 8, !tbaa !64
  %28 = getelementptr inbounds nuw i8, ptr %2, i64 1312
  store double 1.000000e+00, ptr %28, align 8, !tbaa !65
  %29 = getelementptr inbounds nuw i8, ptr %2, i64 1320
  store double 2.000000e+01, ptr %29, align 8, !tbaa !66
  %30 = getelementptr inbounds nuw i8, ptr %2, i64 1360
  store double 2.000000e+01, ptr %30, align 8, !tbaa !60
  %31 = icmp slt i32 %24, 0
  br i1 %31, label %33, label %32

32:                                               ; preds = %6
  %.not = icmp eq i32 %24, 0
  %. = select i1 %.not, i32 0, i32 2
  br label %33

33:                                               ; preds = %32, %6, %5
  %.0 = phi i32 [ -20, %5 ], [ -6, %6 ], [ %., %32 ]
  ret i32 %.0
}